target datalayout = "e-m:e-p270:32:32-p271:32:32-p272:64:64-i64:64-i128:128-f80:128-n8:16:32:64-S128"
target triple = "x86_64-pc-linux-gnu"

%struct.Abc_Frame_t_ = type { ptr, ptr, ptr, ptr, ptr, ptr, ptr, ptr, ptr, ptr, i32, i32, i32, i32, i32, ptr, float, float, i32, i32, ptr, ptr, ptr, double, double, ptr, ptr, ptr, ptr, ptr, ptr, ptr, ptr, ptr, ptr, ptr, ptr, float, ptr, i32, ptr, ptr, ptr, ptr, ptr, i32, i32, i32, i32, i32, i32, ptr, ptr, ptr, ptr, ptr, ptr, i32, i32, ptr, ptr, ptr, ptr, ptr, ptr, ptr, ptr, ptr, ptr, ptr, ptr, ptr, ptr, ptr, ptr, ptr, ptr, ptr, ptr, ptr, ptr, ptr, ptr, ptr, ptr, ptr, ptr, ptr, ptr }
%struct.Vec_Int_t_ = type { i32, i32, ptr }
%struct.Gia_Man_t_ = type { ptr, ptr, i32, i32, i32, i32, ptr, ptr, i32, i32, i32, ptr, ptr, %struct.Vec_Int_t_, %struct.Vec_Int_t_, i32, i32, i32, %struct.Vec_Int_t_, ptr, ptr, ptr, i32, i32, i32, i32, ptr, ptr, ptr, ptr, ptr, i32, i32, ptr, i32, ptr, ptr, ptr, ptr, ptr, ptr, ptr, ptr, ptr, ptr, ptr, ptr, ptr, ptr, ptr, ptr, ptr, ptr, %struct.Vec_Int_t_, %struct.Vec_Int_t_, ptr, ptr, ptr, ptr, ptr, ptr, ptr, ptr, ptr, ptr, ptr, ptr, ptr, ptr, ptr, ptr, ptr, ptr, ptr, ptr, ptr, i32, float, float, ptr, ptr, i32, ptr, ptr, ptr, ptr, ptr, ptr, ptr, ptr, ptr, ptr, ptr, ptr, ptr, ptr, ptr, i64, i64, ptr, ptr, i32, i32, i32, i32, i32, i32, i32, i32, i32, i32, i32, i32, ptr, ptr, ptr, ptr, ptr, ptr, ptr, ptr, i32, i32, i32, ptr, i32, i32, ptr, ptr, ptr, ptr, ptr, ptr, i32, i32, ptr, %struct.Vec_Int_t_, %struct.Vec_Int_t_, %struct.Vec_Int_t_, ptr, ptr, ptr, i32, i32, i32, i32, ptr, ptr, ptr, ptr, ptr }

@globalUtilOptind = external global i32, align 4
@.str.122 = private unnamed_addr constant [3 x i8] c"ch\00", align 1
@.str.398 = private unnamed_addr constant [34 x i8] c"\09-h     : print the help message\0A\00", align 1
@.str.404 = private unnamed_addr constant [59 x i8] c"\09file   : the name of the file to write (extension .json)\0A\00", align 1
@.str.405 = private unnamed_addr constant [41 x i8] c"IoCommandWriteResub(): There is no AIG.\0A\00", align 1
@.str.406 = private unnamed_addr constant [55 x i8] c"IoCommandWriteResub(): The number of inputs is wrong.\0A\00", align 1
@.str.407 = private unnamed_addr constant [34 x i8] c"usage: &write_resub [-ch] <file>\0A\00", align 1
@.str.408 = private unnamed_addr constant [45 x i8] c"\09         write the network in resub format\0A\00", align 1

; Function Attrs: inlinehint nounwind uwtable
define internal i32 @Vec_IntSize(ptr noundef %0) #3 {
  %2 = alloca ptr, align 8
  store ptr %0, ptr %2, align 8, !tbaa !94
  %3 = load ptr, ptr %2, align 8, !tbaa !94
  %4 = getelementptr inbounds nuw %struct.Vec_Int_t_, ptr %3, i32 0, i32 1
  %5 = load i32, ptr %4, align 4, !tbaa !128
  ret i32 %5
}

; Function Attrs: inlinehint nounwind uwtable
define internal i32 @Gia_ManCiNum(ptr noundef %0) #3 {
  %2 = alloca ptr, align 8
  store ptr %0, ptr %2, align 8, !tbaa !20
  %3 = load ptr, ptr %2, align 8, !tbaa !20
  %4 = getelementptr inbounds nuw %struct.Gia_Man_t_, ptr %3, i32 0, i32 11
  %5 = load ptr, ptr %4, align 8, !tbaa !176
  %6 = call i32 @Vec_IntSize(ptr noundef %5)
  ret i32 %6
}

; Function Attrs: nounwind uwtable
define internal i32 @IoCommandWriteResub(ptr noundef %0, i32 noundef %1, ptr noundef %2) #0 {
  %4 = alloca i32, align 4
  %5 = alloca ptr, align 8
  %6 = alloca i32, align 4
  %7 = alloca ptr, align 8
  %8 = alloca ptr, align 8
  %9 = alloca i32, align 4
  %10 = alloca i32, align 4
  store ptr %0, ptr %5, align 8, !tbaa !3
  store i32 %1, ptr %6, align 4, !tbaa !8
  store ptr %2, ptr %7, align 8, !tbaa !10
  call void @llvm.lifetime.start.p0(i64 8, ptr %8) #11
  call void @llvm.lifetime.start.p0(i64 4, ptr %9) #11
  call void (...) @Extra_UtilGetoptReset()
  br label %11

11:                                               ; preds = %3
  %12 = load i32, ptr %6, align 4, !tbaa !8
  %13 = load ptr, ptr %7, align 8, !tbaa !10
  %14 = call i32 @Extra_UtilGetopt(i32 noundef %12, ptr noundef %13, ptr noundef @.str.122)
  store i32 %14, ptr %9, align 4, !tbaa !8
  %15 = icmp ne i32 %14, -1
  br i1 %15, label %16, label %20

16:                                               ; preds = %11
  %17 = load i32, ptr %9, align 4, !tbaa !8
  switch i32 %17, label %19 [
    i32 104, label %18
  ]

18:                                               ; preds = %16
  br label %49

19:                                               ; preds = %16
  br label %49

20:                                               ; preds = %11
  %21 = load i32, ptr %6, align 4, !tbaa !8
  %22 = load i32, ptr @globalUtilOptind, align 4, !tbaa !8
  %23 = add nsw i32 %22, 1
  %24 = icmp ne i32 %21, %23
  br i1 %24, label %25, label %26

25:                                               ; preds = %20
  br label %49

26:                                               ; preds = %20
  %27 = load ptr, ptr %7, align 8, !tbaa !10
  %28 = load i32, ptr @globalUtilOptind, align 4, !tbaa !8
  %29 = sext i32 %28 to i64
  %30 = getelementptr inbounds ptr, ptr %27, i64 %29
  %31 = load ptr, ptr %30, align 8, !tbaa !14
  store ptr %31, ptr %8, align 8, !tbaa !14
  %32 = load ptr, ptr %5, align 8, !tbaa !3
  %33 = getelementptr inbounds nuw %struct.Abc_Frame_t_, ptr %32, i32 0, i32 40
  %34 = load ptr, ptr %33, align 8, !tbaa !76
  %35 = icmp eq ptr %34, null
  br i1 %35, label %36, label %37

36:                                               ; preds = %26
  call void (i32, ptr, ...) @Abc_Print(i32 noundef -1, ptr noundef @.str.405)
  store i32 1, ptr %4, align 4
  store i32 1, ptr %10, align 4
  br label %66

37:                                               ; preds = %26
  %38 = load ptr, ptr %5, align 8, !tbaa !3
  %39 = getelementptr inbounds nuw %struct.Abc_Frame_t_, ptr %38, i32 0, i32 40
  %40 = load ptr, ptr %39, align 8, !tbaa !76
  %41 = call i32 @Gia_ManCiNum(ptr noundef %40)
  %42 = icmp sgt i32 %41, 20
  br i1 %42, label %43, label %44

43:                                               ; preds = %37
  call void (i32, ptr, ...) @Abc_Print(i32 noundef -1, ptr noundef @.str.406)
  store i32 1, ptr %4, align 4
  store i32 1, ptr %10, align 4
  br label %66

44:                                               ; preds = %37
  %45 = load ptr, ptr %5, align 8, !tbaa !3
  %46 = getelementptr inbounds nuw %struct.Abc_Frame_t_, ptr %45, i32 0, i32 40
  %47 = load ptr, ptr %46, align 8, !tbaa !76
  %48 = load ptr, ptr %8, align 8, !tbaa !14
  call void @Gia_ManWriteResub(ptr noundef %47, ptr noundef %48)
  store i32 0, ptr %4, align 4
  store i32 1, ptr %10, align 4
  br label %66

49:                                               ; preds = %25, %19, %18
  %50 = load ptr, ptr %5, align 8, !tbaa !3
  %51 = getelementptr inbounds nuw %struct.Abc_Frame_t_, ptr %50, i32 0, i32 21
  %52 = load ptr, ptr %51, align 8, !tbaa !24
  %53 = call i32 (ptr, ptr, ...) @fprintf(ptr noundef %52, ptr noundef @.str.407) #11
  %54 = load ptr, ptr %5, align 8, !tbaa !3
  %55 = getelementptr inbounds nuw %struct.Abc_Frame_t_, ptr %54, i32 0, i32 21
  %56 = load ptr, ptr %55, align 8, !tbaa !24
  %57 = call i32 (ptr, ptr, ...) @fprintf(ptr noundef %56, ptr noundef @.str.408) #11
  %58 = load ptr, ptr %5, align 8, !tbaa !3
  %59 = getelementptr inbounds nuw %struct.Abc_Frame_t_, ptr %58, i32 0, i32 21
  %60 = load ptr, ptr %59, align 8, !tbaa !24
  %61 = call i32 (ptr, ptr, ...) @fprintf(ptr noundef %60, ptr noundef @.str.398) #11
  %62 = load ptr, ptr %5, align 8, !tbaa !3
  %63 = getelementptr inbounds nuw %struct.Abc_Frame_t_, ptr %62, i32 0, i32 21
  %64 = load ptr, ptr %63, align 8, !tbaa !24
  %65 = call i32 (ptr, ptr, ...) @fprintf(ptr noundef %64, ptr noundef @.str.404) #11
  store i32 1, ptr %4, align 4
  store i32 1, ptr %10, align 4
  br label %66

66:                                               ; preds = %49, %44, %43, %36
  call void @llvm.lifetime.end.p0(i64 4, ptr %9) #11
  call void @llvm.lifetime.end.p0(i64 8, ptr %8) #11
  %67 = load i32, ptr %4, align 4
  ret i32 %67
}