; Function Attrs: nounwind uwtable
define internal range(i32 0, 2) i32 @IoCommandWriteResub(ptr noundef readonly captures(none) %0, i32 noundef %1, ptr noundef %2) #0 {
  tail call void (...) @Extra_UtilGetoptReset() #18
  %4 = tail call i32 @Extra_UtilGetopt(i32 noundef %1, ptr noundef %2, ptr noundef nonnull @.str.122) #18
  %.not = icmp eq i32 %4, -1
  br i1 %.not, label %5, label %22

5:                                                ; preds = %3
  %6 = load i32, ptr @globalUtilOptind, align 4, !tbaa !3
  %7 = add nsw i32 %6, 1
  %.not13 = icmp eq i32 %1, %7
  br i1 %.not13, label %8, label %22

8:                                                ; preds = %5
  %9 = sext i32 %6 to i64
  %10 = getelementptr inbounds ptr, ptr %2, i64 %9
  %11 = load ptr, ptr %10, align 8, !tbaa !9
  %12 = getelementptr inbounds nuw i8, ptr %0, i64 288
  %13 = load ptr, ptr %12, align 8, !tbaa !75
  %14 = icmp eq ptr %13, null
  br i1 %14, label %15, label %16

15:                                               ; preds = %8
  tail call void (i32, ptr, ...) @Abc_Print(i32 noundef -1, ptr noundef nonnull @.str.405)
  br label %32

16:                                               ; preds = %8
  %17 = getelementptr i8, ptr %13, i64 64
  %.val = load ptr, ptr %17, align 8, !tbaa !113
  %18 = getelementptr i8, ptr %.val, i64 4
  %.val.val = load i32, ptr %18, align 4, !tbaa !114
  %19 = icmp sgt i32 %.val.val, 20
  br i1 %19, label %20, label %21

20:                                               ; preds = %16
  tail call void (i32, ptr, ...) @Abc_Print(i32 noundef -1, ptr noundef nonnull @.str.406)
  br label %32

21:                                               ; preds = %16
  tail call void @Gia_ManWriteResub(ptr noundef nonnull %13, ptr noundef %11) #18
  br label %32

22:                                               ; preds = %5, %3
  %23 = getelementptr inbounds nuw i8, ptr %0, i64 136
  %24 = load ptr, ptr %23, align 8, !tbaa !34
  %25 = tail call i64 @fwrite(ptr nonnull @.str.407, i64 33, i64 1, ptr %24)
  %26 = load ptr, ptr %23, align 8, !tbaa !34
  %27 = tail call i64 @fwrite(ptr nonnull @.str.408, i64 44, i64 1, ptr %26)
  %28 = load ptr, ptr %23, align 8, !tbaa !34
  %29 = tail call i64 @fwrite(ptr nonnull @.str.398, i64 33, i64 1, ptr %28)
  %30 = load ptr, ptr %23, align 8, !tbaa !34
  %31 = tail call i64 @fwrite(ptr nonnull @.str.404, i64 58, i64 1, ptr %30)
  br label %32

32:                                               ; preds = %22, %21, %20, %15
  %.0 = phi i32 [ 1, %22 ], [ 1, %15 ], [ 1, %20 ], [ 0, %21 ]
  ret i32 %.0
}